; Function Attrs: nounwind uwtable
define ptr @l_Lean_Compiler_LCNF_normLevelParams(ptr noundef %0) local_unnamed_addr #1 {
  %2 = load ptr, ptr @l_Lean_Compiler_LCNF_normLevelParams___closed__5, align 8, !tbaa !4
  %3 = tail call ptr @l_Lean_Compiler_LCNF_NormLevelParam_normExpr(ptr noundef %0, ptr noundef %2)
  %.val = load i32, ptr %3, align 4, !tbaa !8
  %4 = icmp eq i32 %.val, 1
  br i1 %4, label %5, label %28

5:                                                ; preds = %1
  %6 = getelementptr inbounds nuw i8, ptr %3, i64 16
  %7 = load ptr, ptr %6, align 8, !tbaa !4
  %8 = getelementptr inbounds nuw i8, ptr %7, i64 24
  %9 = load ptr, ptr %8, align 8, !tbaa !4
  %10 = ptrtoint ptr %9 to i64
  %11 = and i64 %10, 1
  %.not48 = icmp eq i64 %11, 0
  br i1 %.not48, label %12, label %lean_inc.exit28

12:                                               ; preds = %5
  %.val.i = load i32, ptr %9, align 4, !tbaa !8
  %13 = icmp sgt i32 %.val.i, 0
  br i1 %13, label %14, label %16, !prof !11

14:                                               ; preds = %12
  %15 = add nuw i32 %.val.i, 1
  store i32 %15, ptr %9, align 4, !tbaa !8
  br label %lean_inc.exit28

16:                                               ; preds = %12
  %.not.i35 = icmp eq i32 %.val.i, 0
  br i1 %.not.i35, label %lean_inc.exit28, label %17

17:                                               ; preds = %16
  tail call void @lean_inc_ref_cold(ptr noundef nonnull %9) #4
  br label %lean_inc.exit28

lean_inc.exit28:                                  ; preds = %17, %16, %14, %5
  %18 = ptrtoint ptr %7 to i64
  %19 = and i64 %18, 1
  %.not49 = icmp eq i64 %19, 0
  br i1 %.not49, label %20, label %lean_dec.exit30

20:                                               ; preds = %lean_inc.exit28
  %21 = load i32, ptr %7, align 4, !tbaa !8
  %22 = icmp sgt i32 %21, 1
  br i1 %22, label %23, label %25, !prof !11

23:                                               ; preds = %20
  %24 = add nsw i32 %21, -1
  store i32 %24, ptr %7, align 4, !tbaa !8
  br label %lean_dec.exit30

25:                                               ; preds = %20
  %.not.i = icmp eq i32 %21, 0
  br i1 %.not.i, label %lean_dec.exit30, label %26

26:                                               ; preds = %25
  tail call void @lean_dec_ref_cold(ptr noundef nonnull %7) #4
  br label %lean_dec.exit30

lean_dec.exit30:                                  ; preds = %26, %25, %23, %lean_inc.exit28
  %27 = tail call ptr @lean_array_to_list(ptr noundef %9) #4
  store ptr %27, ptr %6, align 8, !tbaa !4
  br label %82

28:                                               ; preds = %1
  %29 = getelementptr inbounds nuw i8, ptr %3, i64 8
  %30 = load ptr, ptr %29, align 8, !tbaa !4
  %31 = getelementptr inbounds nuw i8, ptr %3, i64 16
  %32 = load ptr, ptr %31, align 8, !tbaa !4
  %33 = ptrtoint ptr %32 to i64
  %34 = and i64 %33, 1
  %.not = icmp eq i64 %34, 0
  br i1 %.not, label %35, label %lean_inc.exit27

35:                                               ; preds = %28
  %.val.i36 = load i32, ptr %32, align 4, !tbaa !8
  %36 = icmp sgt i32 %.val.i36, 0
  br i1 %36, label %37, label %39, !prof !11

37:                                               ; preds = %35
  %38 = add nuw i32 %.val.i36, 1
  store i32 %38, ptr %32, align 4, !tbaa !8
  br label %lean_inc.exit27

39:                                               ; preds = %35
  %.not.i37 = icmp eq i32 %.val.i36, 0
  br i1 %.not.i37, label %lean_inc.exit27, label %40

40:                                               ; preds = %39
  tail call void @lean_inc_ref_cold(ptr noundef nonnull %32) #4
  br label %lean_inc.exit27

lean_inc.exit27:                                  ; preds = %40, %39, %37, %28
  %41 = ptrtoint ptr %30 to i64
  %42 = and i64 %41, 1
  %.not45 = icmp eq i64 %42, 0
  br i1 %.not45, label %43, label %lean_inc.exit26

43:                                               ; preds = %lean_inc.exit27
  %.val.i39 = load i32, ptr %30, align 4, !tbaa !8
  %44 = icmp sgt i32 %.val.i39, 0
  br i1 %44, label %45, label %47, !prof !11

45:                                               ; preds = %43
  %46 = add nuw i32 %.val.i39, 1
  store i32 %46, ptr %30, align 4, !tbaa !8
  br label %lean_inc.exit26

47:                                               ; preds = %43
  %.not.i40 = icmp eq i32 %.val.i39, 0
  br i1 %.not.i40, label %lean_inc.exit26, label %48

48:                                               ; preds = %47
  tail call void @lean_inc_ref_cold(ptr noundef nonnull %30) #4
  br label %lean_inc.exit26

lean_inc.exit26:                                  ; preds = %48, %47, %45, %lean_inc.exit27
  %49 = ptrtoint ptr %3 to i64
  %50 = and i64 %49, 1
  %.not46 = icmp eq i64 %50, 0
  br i1 %.not46, label %51, label %lean_dec.exit29

51:                                               ; preds = %lean_inc.exit26
  %52 = load i32, ptr %3, align 4, !tbaa !8
  %53 = icmp sgt i32 %52, 1
  br i1 %53, label %54, label %56, !prof !11

54:                                               ; preds = %51
  %55 = add nsw i32 %52, -1
  store i32 %55, ptr %3, align 4, !tbaa !8
  br label %lean_dec.exit29

56:                                               ; preds = %51
  %.not.i31 = icmp eq i32 %52, 0
  br i1 %.not.i31, label %lean_dec.exit29, label %57

57:                                               ; preds = %56
  tail call void @lean_dec_ref_cold(ptr noundef nonnull %3) #4
  br label %lean_dec.exit29

lean_dec.exit29:                                  ; preds = %57, %56, %54, %lean_inc.exit26
  %58 = getelementptr inbounds nuw i8, ptr %32, i64 24
  %59 = load ptr, ptr %58, align 8, !tbaa !4
  %60 = ptrtoint ptr %59 to i64
  %61 = and i64 %60, 1
  %.not47 = icmp eq i64 %61, 0
  br i1 %.not47, label %62, label %lean_inc.exit

62:                                               ; preds = %lean_dec.exit29
  %.val.i42 = load i32, ptr %59, align 4, !tbaa !8
  %63 = icmp sgt i32 %.val.i42, 0
  br i1 %63, label %64, label %66, !prof !11

64:                                               ; preds = %62
  %65 = add nuw i32 %.val.i42, 1
  store i32 %65, ptr %59, align 4, !tbaa !8
  br label %lean_inc.exit

66:                                               ; preds = %62
  %.not.i43 = icmp eq i32 %.val.i42, 0
  br i1 %.not.i43, label %lean_inc.exit, label %67

67:                                               ; preds = %66
  tail call void @lean_inc_ref_cold(ptr noundef nonnull %59) #4
  br label %lean_inc.exit

lean_inc.exit:                                    ; preds = %67, %66, %64, %lean_dec.exit29
  br i1 %.not, label %68, label %lean_dec.exit

68:                                               ; preds = %lean_inc.exit
  %69 = load i32, ptr %32, align 4, !tbaa !8
  %70 = icmp sgt i32 %69, 1
  br i1 %70, label %71, label %73, !prof !11

71:                                               ; preds = %68
  %72 = add nsw i32 %69, -1
  store i32 %72, ptr %32, align 4, !tbaa !8
  br label %lean_dec.exit

73:                                               ; preds = %68
  %.not.i33 = icmp eq i32 %69, 0
  br i1 %.not.i33, label %lean_dec.exit, label %74

74:                                               ; preds = %73
  tail call void @lean_dec_ref_cold(ptr noundef nonnull %32) #4
  br label %lean_dec.exit

lean_dec.exit:                                    ; preds = %74, %73, %71, %lean_inc.exit
  %75 = tail call ptr @lean_array_to_list(ptr noundef %59) #4
  tail call void @lean_inc_heartbeat() #4
  %76 = tail call noalias ptr @mi_malloc_small(i64 noundef 24) #4
  %77 = icmp eq ptr %76, null
  br i1 %77, label %78, label %lean_alloc_ctor.exit

78:                                               ; preds = %lean_dec.exit
  tail call void @lean_internal_panic_out_of_memory() #5
  unreachable

lean_alloc_ctor.exit:                             ; preds = %lean_dec.exit
  %79 = getelementptr inbounds nuw i8, ptr %76, i64 4
  store i32 1, ptr %76, align 4, !tbaa !8
  store i32 131096, ptr %79, align 4
  %80 = getelementptr inbounds nuw i8, ptr %76, i64 8
  store ptr %30, ptr %80, align 8, !tbaa !4
  %81 = getelementptr inbounds nuw i8, ptr %76, i64 16
  store ptr %75, ptr %81, align 8, !tbaa !4
  br label %82

82:                                               ; preds = %lean_alloc_ctor.exit, %lean_dec.exit30
  %.0 = phi ptr [ %3, %lean_dec.exit30 ], [ %76, %lean_alloc_ctor.exit ]
  ret ptr %.0
}